(lp0
(dp1
S'0x0008'
p2
(dp3
g2
F0.0
sS'0x0009'
p4
F0.07508695652173912
sS'0x0005'
p5
F0.0
sS'0x0002'
p6
F0.032
sS'0x0010'
p7
F0.0
sS'0x000f'
p8
F0.0305
sS'0x000e'
p9
F0.0
sS'0x000a'
p10
F0.9449696969696968
ssg4
(dp11
g2
F0.002
sg4
F0.0
sg5
F0.0
sg6
F0.0
sg7
F0.0
sg8
F0.28200000000000003
sg9
F0.0
sg10
F0.717939393939394
ssg5
(dp12
g2
F1.0
sg4
F0.0
sg5
F0.0
sg6
F0.0
sg7
F0.0
sg8
F0.0
sg9
F0.0
sg10
F0.0
ssg6
(dp13
g2
F0.06593939393939395
sg4
F0.9340606060606061
sg5
F0.0
sg6
F0.0
sg7
F0.0
sg8
F0.0
sg9
F0.0
sg10
F0.0
ssg7
(dp14
g2
F0.0
sg4
F0.0
sg5
F0.0
sg6
F0.0
sg7
F0.0
sg8
F0.0
sg9
F0.0
sg10
F0.0
ssg8
(dp15
g2
F0.004
sg4
F0.006888888888888891
sg5
F0.004
sg6
F0.4950303030303031
sg7
F0.0
sg8
F0.0
sg9
F0.0
sg10
F0.5006666666666666
ssg9
(dp16
g2
F0.0
sg4
F0.0
sg5
F0.0
sg6
F0.0
sg7
F0.0
sg8
F0.0
sg9
F0.0
sg10
F0.0
ssg10
(dp17
g2
F0.05263636363636365
sg4
F0.6813636363636364
sg5
F0.0
sg6
F0.00388888888888889
sg7
F0.0
sg8
F0.2637575757575758
sg9
F0.0
sg10
F0.002
ssa(dp18
g2
(dp19
g2
F0.0
sg4
F0.07653571428571429
sg5
F0.0
sg6
F0.0
sg7
F0.0
sg8
F0.029
sg9
F0.0
sg10
F0.9343939393939393
ssg4
(dp20
g2
F0.0
sg4
F0.0
sg5
F0.0
sg6
F0.002
sg7
F0.0
sg8
F0.2818787878787879
sg9
F0.0
sg10
F0.717969696969697
ssg5
(dp21
g2
F0.0
sg4
F0.0
sg5
F0.0
sg6
F0.0
sg7
F0.0
sg8
F1.0
sg9
F0.0
sg10
F0.0
ssg6
(dp22
g2
F0.06890909090909092
sg4
F0.9306060606060608
sg5
F0.0
sg6
F0.0
sg7
F0.0
sg8
F0.0
sg9
F0.0
sg10
F0.0085
ssg7
(dp23
g2
F0.0
sg4
F0.0
sg5
F0.0
sg6
F0.0
sg7
F0.0
sg8
F0.0
sg9
F0.0
sg10
F0.0
ssg8
(dp24
g2
F0.004
sg4
F0.0065000000000000014
sg5
F0.0
sg6
F0.4944848484848485
sg7
F0.0
sg8
F0.004
sg9
F0.0
sg10
F0.5006666666666666
ssg9
(dp25
g2
F0.0
sg4
F0.0
sg5
F0.0
sg6
F0.0
sg7
F0.0
sg8
F0.0
sg9
F0.0
sg10
F0.0
ssg10
(dp26
g2
F0.05299999999999999
sg4
F0.6811515151515151
sg5
F0.002
sg6
F0.00368421052631579
sg7
F0.0
sg8
F0.26351515151515154
sg9
F0.0
sg10
F0.0
ssa(dp27
g2
(dp28
g2
F0.0285
sg4
F0.07646428571428572
sg5
F0.0
sg6
F0.0
sg7
F0.0
sg8
F0.0
sg9
F0.0
sg10
F0.9334242424242425
ssg4
(dp29
g2
F0.0
sg4
F0.0
sg5
F0.0
sg6
F0.002
sg7
F0.0
sg8
F0.28063636363636363
sg9
F0.0
sg10
F0.7193030303030301
ssg5
(dp30
g2
F1.0
sg4
F0.0
sg5
F0.0
sg6
F1.0
sg7
F0.0
sg8
F0.0
sg9
F0.0
sg10
F0.0
ssg6
(dp31
g2
F0.0637878787878788
sg4
F0.9359696969696969
sg5
F0.0
sg6
F0.0
sg7
F0.0
sg8
F0.0
sg9
F0.0
sg10
F0.008
ssg7
(dp32
g2
F0.0
sg4
F0.0
sg5
F0.0
sg6
F0.0
sg7
F0.0
sg8
F0.0
sg9
F0.0
sg10
F0.0
ssg8
(dp33
g2
F0.004
sg4
F0.005565217391304349
sg5
F0.004
sg6
F0.4951818181818182
sg7
F0.0
sg8
F0.004
sg9
F0.0
sg10
F0.5002424242424244
ssg9
(dp34
g2
F0.0
sg4
F0.0
sg5
F0.0
sg6
F0.0
sg7
F0.0
sg8
F0.0
sg9
F0.0
sg10
F0.0
ssg10
(dp35
g2
F0.0545757575757576
sg4
F0.6811212121212121
sg5
F0.0
sg6
F0.002944444444444445
sg7
F0.0
sg8
F0.2625454545454545
sg9
F0.0
sg10
F0.0
ssa.